target datalayout = "e-m:e-p270:32:32-p271:32:32-p272:64:64-i64:64-i128:128-f80:128-n8:16:32:64-S128"
target triple = "x86_64-pc-linux-gnu"

%struct.msoab_decompressor_p = type { %struct.msoab_decompressor, ptr, i32 }
%struct.msoab_decompressor = type { ptr, ptr, ptr }

; Function Attrs: nounwind uwtable
define internal i32 @oabd_param(ptr noundef %0, i32 noundef %1, i32 noundef %2) #0 {
  %4 = alloca i32, align 4
  %5 = alloca ptr, align 8
  %6 = alloca i32, align 4
  %7 = alloca i32, align 4
  %8 = alloca ptr, align 8
  %9 = alloca i32, align 4
  store ptr %0, ptr %5, align 8, !tbaa !20
  store i32 %1, ptr %6, align 4, !tbaa !28
  store i32 %2, ptr %7, align 4, !tbaa !28
  call void @llvm.lifetime.start.p0(i64 8, ptr %8) #5
  %10 = load ptr, ptr %5, align 8, !tbaa !20
  store ptr %10, ptr %8, align 8, !tbaa !8
  %11 = load ptr, ptr %8, align 8, !tbaa !8
  %12 = icmp ne ptr %11, null
  br i1 %12, label %13, label %23

13:                                               ; preds = %3
  %14 = load i32, ptr %6, align 4, !tbaa !28
  %15 = icmp eq i32 %14, 0
  br i1 %15, label %16, label %23

16:                                               ; preds = %13
  %17 = load i32, ptr %7, align 4, !tbaa !28
  %18 = icmp sge i32 %17, 16
  br i1 %18, label %19, label %23

19:                                               ; preds = %16
  %20 = load i32, ptr %7, align 4, !tbaa !28
  %21 = load ptr, ptr %8, align 8, !tbaa !8
  %22 = getelementptr inbounds nuw %struct.msoab_decompressor_p, ptr %21, i32 0, i32 2
  store i32 %20, ptr %22, align 8, !tbaa !19
  store i32 0, ptr %4, align 4
  store i32 1, ptr %9, align 4
  br label %24

23:                                               ; preds = %16, %13, %3
  store i32 1, ptr %4, align 4
  store i32 1, ptr %9, align 4
  br label %24

24:                                               ; preds = %23, %19
  call void @llvm.lifetime.end.p0(i64 8, ptr %8) #5
  %25 = load i32, ptr %4, align 4
  ret i32 %25
}