; Function Attrs: mustprogress nofree norecurse nosync nounwind willreturn memory(argmem: write) uwtable
define internal range(i32 0, 2) i32 @oabd_param(ptr noundef writeonly %0, i32 noundef %1, i32 noundef %2) #3 {
  %4 = icmp ne ptr %0, null
  %5 = icmp eq i32 %1, 0
  %or.cond = and i1 %4, %5
  %6 = icmp sgt i32 %2, 15
  %or.cond3 = and i1 %or.cond, %6
  br i1 %or.cond3, label %7, label %9

7:                                                ; preds = %3
  %8 = getelementptr inbounds nuw i8, ptr %0, i64 32
  store i32 %2, ptr %8, align 8, !tbaa !16
  br label %9

9:                                                ; preds = %3, %7
  %.0 = phi i32 [ 0, %7 ], [ 1, %3 ]
  ret i32 %.0
}